; ModuleID = 'source-C-CXX/29/3364.c'
source_filename = "source-C-CXX/29/3364.c"
target datalayout = "e-m:e-p270:32:32-p271:32:32-p272:64:64-i64:64-f80:128-n8:16:32:64-S128"
target triple = "x86_64-pc-linux-gnu"

@.str = private unnamed_addr constant [3 x i8] c"%d\00", align 1
@.str.1 = private unnamed_addr constant [4 x i8] c"%d\0A\00", align 1

; Function Attrs: nofree nounwind sspstrong uwtable
define dso_local i32 @main() local_unnamed_addr #0 {
  %1 = alloca i32, align 4
  %2 = bitcast i32* %1 to i8*
  call void @llvm.lifetime.start.p0i8(i64 4, i8* nonnull %2) #4
  %3 = call i32 (i8*, ...) @__isoc99_scanf(i8* getelementptr inbounds ([3 x i8], [3 x i8]* @.str, i64 0, i64 0), i32* nonnull %1)
  %4 = load i32, i32* %1, align 4, !tbaa !5
  %5 = icmp slt i32 %4, 1
  br i1 %5, label %67, label %6

6:                                                ; preds = %0
  %7 = icmp ult i32 %4, 8
  br i1 %7, label %46, label %8

8:                                                ; preds = %6
  %9 = and i32 %4, -8
  %10 = or i32 %9, 1
  br label %11

11:                                               ; preds = %11, %8
  %12 = phi i32 [ 0, %8 ], [ %39, %11 ]
  %13 = phi <4 x i32> [ zeroinitializer, %8 ], [ %36, %11 ]
  %14 = phi <4 x i32> [ zeroinitializer, %8 ], [ %38, %11 ]
  %15 = phi <4 x i32> [ <i32 1, i32 2, i32 3, i32 4>, %8 ], [ %40, %11 ]
  %16 = add <4 x i32> %15, <i32 4, i32 4, i32 4, i32 4>
  %17 = urem <4 x i32> %15, <i32 7, i32 7, i32 7, i32 7>
  %18 = urem <4 x i32> %16, <i32 7, i32 7, i32 7, i32 7>
  %19 = icmp ne <4 x i32> %17, zeroinitializer
  %20 = icmp ne <4 x i32> %18, zeroinitializer
  %21 = urem <4 x i32> %15, <i32 10, i32 10, i32 10, i32 10>
  %22 = urem <4 x i32> %16, <i32 10, i32 10, i32 10, i32 10>
  %23 = icmp ne <4 x i32> %21, <i32 7, i32 7, i32 7, i32 7>
  %24 = icmp ne <4 x i32> %22, <i32 7, i32 7, i32 7, i32 7>
  %25 = sub nuw nsw <4 x i32> %15, %21
  %26 = sub nuw nsw <4 x i32> %16, %22
  %27 = icmp ne <4 x i32> %25, <i32 70, i32 70, i32 70, i32 70>
  %28 = icmp ne <4 x i32> %26, <i32 70, i32 70, i32 70, i32 70>
  %29 = mul nsw <4 x i32> %15, %15
  %30 = mul nsw <4 x i32> %16, %16
  %31 = and <4 x i1> %19, %23
  %32 = select <4 x i1> %31, <4 x i1> %27, <4 x i1> zeroinitializer
  %33 = and <4 x i1> %20, %24
  %34 = select <4 x i1> %33, <4 x i1> %28, <4 x i1> zeroinitializer
  %35 = select <4 x i1> %32, <4 x i32> %29, <4 x i32> zeroinitializer
  %36 = add <4 x i32> %13, %35
  %37 = select <4 x i1> %34, <4 x i32> %30, <4 x i32> zeroinitializer
  %38 = add <4 x i32> %14, %37
  %39 = add nuw i32 %12, 8
  %40 = add <4 x i32> %15, <i32 8, i32 8, i32 8, i32 8>
  %41 = icmp eq i32 %39, %9
  br i1 %41, label %42, label %11, !llvm.loop !9

42:                                               ; preds = %11
  %43 = add <4 x i32> %38, %36
  %44 = call i32 @llvm.vector.reduce.add.v4i32(<4 x i32> %43)
  %45 = icmp eq i32 %4, %9
  br i1 %45, label %67, label %46

46:                                               ; preds = %6, %42
  %47 = phi i32 [ 0, %6 ], [ %44, %42 ]
  %48 = phi i32 [ 1, %6 ], [ %10, %42 ]
  br label %49

49:                                               ; preds = %46, %63
  %50 = phi i32 [ %64, %63 ], [ %47, %46 ]
  %51 = phi i32 [ %65, %63 ], [ %48, %46 ]
  %52 = urem i32 %51, 7
  %53 = icmp eq i32 %52, 0
  br i1 %53, label %63, label %54

54:                                               ; preds = %49
  %55 = urem i32 %51, 10
  %56 = icmp eq i32 %55, 7
  %57 = sub nuw nsw i32 %51, %55
  %58 = icmp eq i32 %57, 70
  %59 = select i1 %56, i1 true, i1 %58
  br i1 %59, label %63, label %60

60:                                               ; preds = %54
  %61 = mul nsw i32 %51, %51
  %62 = add nsw i32 %50, %61
  br label %63

63:                                               ; preds = %54, %49, %60
  %64 = phi i32 [ %50, %49 ], [ %50, %54 ], [ %62, %60 ]
  %65 = add nuw i32 %51, 1
  %66 = icmp eq i32 %51, %4
  br i1 %66, label %67, label %49, !llvm.loop !12

67:                                               ; preds = %63, %42, %0
  %68 = phi i32 [ 0, %0 ], [ %44, %42 ], [ %64, %63 ]
  %69 = call i32 (i8*, ...) @printf(i8* nonnull dereferenceable(1) getelementptr inbounds ([4 x i8], [4 x i8]* @.str.1, i64 0, i64 0), i32 %68)
  call void @llvm.lifetime.end.p0i8(i64 4, i8* nonnull %2) #4
  ret i32 0
}

; Function Attrs: argmemonly mustprogress nofree nosync nounwind willreturn
declare void @llvm.lifetime.start.p0i8(i64 immarg, i8* nocapture) #1

; Function Attrs: nofree nounwind
declare noundef i32 @__isoc99_scanf(i8* nocapture noundef readonly, ...) local_unnamed_addr #2

; Function Attrs: nofree nounwind
declare noundef i32 @printf(i8* nocapture noundef readonly, ...) local_unnamed_addr #2

; Function Attrs: argmemonly mustprogress nofree nosync nounwind willreturn
declare void @llvm.lifetime.end.p0i8(i64 immarg, i8* nocapture) #1

; Function Attrs: nofree nosync nounwind readnone willreturn
declare i32 @llvm.vector.reduce.add.v4i32(<4 x i32>) #3


!llvm.module.flags = !{!0, !1, !2, !3}
!llvm.ident = !{!4}

!0 = !{i32 1, !"wchar_size", i32 4}
!1 = !{i32 7, !"PIC Level", i32 2}
!2 = !{i32 7, !"PIE Level", i32 2}
!3 = !{i32 7, !"uwtable", i32 1}
!4 = !{!"clang version 13.0.0"}
!5 = !{!6, !6, i64 0}
!6 = !{!"int", !7, i64 0}
!7 = !{!"omnipotent char", !8, i64 0}
!8 = !{!"Simple C/C++ TBAA"}
!9 = distinct !{!9, !10, !11}
!10 = !{!"llvm.loop.mustprogress"}
!11 = !{!"llvm.loop.isvectorized", i32 1}
!12 = distinct !{!12, !10, !13, !11}
!13 = !{!"llvm.loop.unroll.runtime.disable"}
